target datalayout = "e-m:e-p270:32:32-p271:32:32-p272:64:64-i64:64-i128:128-f80:128-n8:16:32:64-S128"
target triple = "x86_64-unknown-linux-gnu"

%"class.node::AsyncWrap" = type { %"class.node::BaseObject", i32, i8, double, double }
%"class.node::BaseObject" = type { %"class.node::MemoryRetainer", %"class.v8::Global", ptr, ptr }
%"class.node::MemoryRetainer" = type { ptr }
%"class.v8::Global" = type { %"class.v8::PersistentBase" }
%"class.v8::PersistentBase" = type { %"class.v8::IndirectHandleBase" }
%"class.v8::IndirectHandleBase" = type { ptr }
%"class.node::StreamListener" = type { ptr, ptr, ptr }
%"class.node::http2::Http2Scope" = type { %"class.node::BaseObjectPtrImpl" }
%"class.node::BaseObjectPtrImpl" = type { %union.anon }
%union.anon = type { ptr }
%"class.node::http2::Http2Session" = type { %"class.node::AsyncWrap", %"class.node::StreamListener", %"class.node::mem::NgLibMemoryManager", %"struct.node::http2::Http2Session::Statistics", %"class.std::unique_ptr.7", %"class.node::AliasedStruct", i32, i32, i64, i64, i64, %"class.std::unordered_map", i32, i32, i32, %struct.uv_buf_t, %"class.v8::Global.15", %"class.std::unique_ptr.22", i64, ptr, i64, %"class.std::queue.30", i64, %"class.std::queue.37", %"class.std::vector.44", %"class.std::vector.46", i64, %"class.std::vector.51", i32, i32, %"class.node::BaseObjectPtrImpl.56" }
%"class.node::mem::NgLibMemoryManager" = type { %"struct.node::mem::NgLibMemoryManagerBase" }
%"struct.node::mem::NgLibMemoryManagerBase" = type { ptr }
%"struct.node::http2::Http2Session::Statistics" = type { i64, i64, i64, i64, i64, i32, i32, i32, i64, double, i32 }
%"class.std::unique_ptr.7" = type { %"struct.std::__uniq_ptr_data.8" }
%"struct.std::__uniq_ptr_data.8" = type { %"class.std::__uniq_ptr_impl.9" }
%"class.std::__uniq_ptr_impl.9" = type { %"class.std::tuple.10" }
%"class.std::tuple.10" = type { %"struct.std::_Tuple_impl.11" }
%"struct.std::_Tuple_impl.11" = type { %"struct.std::_Head_base.14" }
%"struct.std::_Head_base.14" = type { ptr }
%"class.node::AliasedStruct" = type { ptr, %"class.std::shared_ptr", ptr, %"class.v8::Global.15" }
%"class.std::shared_ptr" = type { %"class.std::__shared_ptr" }
%"class.std::__shared_ptr" = type { ptr, %"class.std::__shared_count" }
%"class.std::__shared_count" = type { ptr }
%"class.std::unordered_map" = type { %"class.std::_Hashtable" }
%"class.std::_Hashtable" = type { ptr, i64, %"struct.std::__detail::_Hash_node_base", i64, %"struct.std::__detail::_Prime_rehash_policy", ptr }
%"struct.std::__detail::_Hash_node_base" = type { ptr }
%"struct.std::__detail::_Prime_rehash_policy" = type { float, i64 }
%struct.uv_buf_t = type { ptr, i64 }
%"class.v8::Global.15" = type { %"class.v8::PersistentBase.16" }
%"class.v8::PersistentBase.16" = type { %"class.v8::IndirectHandleBase" }
%"class.std::unique_ptr.22" = type { %"struct.std::__uniq_ptr_data.23" }
%"struct.std::__uniq_ptr_data.23" = type { %"class.std::__uniq_ptr_impl.24" }
%"class.std::__uniq_ptr_impl.24" = type { %"class.std::tuple.25" }
%"class.std::tuple.25" = type { %"struct.std::_Tuple_impl.26" }
%"struct.std::_Tuple_impl.26" = type { %"struct.std::_Head_base.29" }
%"struct.std::_Head_base.29" = type { ptr }
%"class.std::queue.30" = type { %"class.std::deque.31" }
%"class.std::deque.31" = type { %"class.std::_Deque_base.32" }
%"class.std::_Deque_base.32" = type { %"struct.std::_Deque_base<node::BaseObjectPtrImpl<node::http2::Http2Ping, false>, std::allocator<node::BaseObjectPtrImpl<node::http2::Http2Ping, false>>>::_Deque_impl" }
%"struct.std::_Deque_base<node::BaseObjectPtrImpl<node::http2::Http2Ping, false>, std::allocator<node::BaseObjectPtrImpl<node::http2::Http2Ping, false>>>::_Deque_impl" = type { %"struct.std::_Deque_base<node::BaseObjectPtrImpl<node::http2::Http2Ping, false>, std::allocator<node::BaseObjectPtrImpl<node::http2::Http2Ping, false>>>::_Deque_impl_data" }
%"struct.std::_Deque_base<node::BaseObjectPtrImpl<node::http2::Http2Ping, false>, std::allocator<node::BaseObjectPtrImpl<node::http2::Http2Ping, false>>>::_Deque_impl_data" = type { ptr, i64, %"struct.std::_Deque_iterator.36", %"struct.std::_Deque_iterator.36" }
%"struct.std::_Deque_iterator.36" = type { ptr, ptr, ptr, ptr }
%"class.std::queue.37" = type { %"class.std::deque.38" }
%"class.std::deque.38" = type { %"class.std::_Deque_base.39" }
%"class.std::_Deque_base.39" = type { %"struct.std::_Deque_base<node::BaseObjectPtrImpl<node::http2::Http2Settings, false>, std::allocator<node::BaseObjectPtrImpl<node::http2::Http2Settings, false>>>::_Deque_impl" }
%"struct.std::_Deque_base<node::BaseObjectPtrImpl<node::http2::Http2Settings, false>, std::allocator<node::BaseObjectPtrImpl<node::http2::Http2Settings, false>>>::_Deque_impl" = type { %"struct.std::_Deque_base<node::BaseObjectPtrImpl<node::http2::Http2Settings, false>, std::allocator<node::BaseObjectPtrImpl<node::http2::Http2Settings, false>>>::_Deque_impl_data" }
%"struct.std::_Deque_base<node::BaseObjectPtrImpl<node::http2::Http2Settings, false>, std::allocator<node::BaseObjectPtrImpl<node::http2::Http2Settings, false>>>::_Deque_impl_data" = type { ptr, i64, %"struct.std::_Deque_iterator.43", %"struct.std::_Deque_iterator.43" }
%"struct.std::_Deque_iterator.43" = type { ptr, ptr, ptr, ptr }
%"class.std::vector.44" = type { %"struct.std::_Vector_base.45" }
%"struct.std::_Vector_base.45" = type { %"struct.std::_Vector_base<node::http2::NgHttp2StreamWrite, std::allocator<node::http2::NgHttp2StreamWrite>>::_Vector_impl" }
%"struct.std::_Vector_base<node::http2::NgHttp2StreamWrite, std::allocator<node::http2::NgHttp2StreamWrite>>::_Vector_impl" = type { %"struct.std::_Vector_base<node::http2::NgHttp2StreamWrite, std::allocator<node::http2::NgHttp2StreamWrite>>::_Vector_impl_data" }
%"struct.std::_Vector_base<node::http2::NgHttp2StreamWrite, std::allocator<node::http2::NgHttp2StreamWrite>>::_Vector_impl_data" = type { ptr, ptr, ptr }
%"class.std::vector.46" = type { %"struct.std::_Vector_base.47" }
%"struct.std::_Vector_base.47" = type { %"struct.std::_Vector_base<unsigned char, std::allocator<unsigned char>>::_Vector_impl" }
%"struct.std::_Vector_base<unsigned char, std::allocator<unsigned char>>::_Vector_impl" = type { %"struct.std::_Vector_base<unsigned char, std::allocator<unsigned char>>::_Vector_impl_data" }
%"struct.std::_Vector_base<unsigned char, std::allocator<unsigned char>>::_Vector_impl_data" = type { ptr, ptr, ptr }
%"class.std::vector.51" = type { %"struct.std::_Vector_base.52" }
%"struct.std::_Vector_base.52" = type { %"struct.std::_Vector_base<int, std::allocator<int>>::_Vector_impl" }
%"struct.std::_Vector_base<int, std::allocator<int>>::_Vector_impl" = type { %"struct.std::_Vector_base<int, std::allocator<int>>::_Vector_impl_data" }
%"struct.std::_Vector_base<int, std::allocator<int>>::_Vector_impl_data" = type { ptr, ptr, ptr }
%"class.node::BaseObjectPtrImpl.56" = type { %union.anon.57 }
%union.anon.57 = type { ptr }

; Function Attrs: mustprogress nounwind uwtable
define linkonce_odr dso_local noundef ptr @_ZNK4node17BaseObjectPtrImplINS_5http212Http2SessionELb0EE15get_base_objectEv(ptr noundef nonnull align 8 dereferenceable(8) %this) #4 comdat align 2 {
entry:
  %this.addr = alloca ptr, align 8
  store ptr %this, ptr %this.addr, align 8
  %this1 = load ptr, ptr %this.addr, align 8
  %data_ = getelementptr inbounds %"class.node::BaseObjectPtrImpl", ptr %this1, i32 0, i32 0
  %0 = load ptr, ptr %data_, align 8
  ret ptr %0
}

; Function Attrs: mustprogress nounwind uwtable
define linkonce_odr dso_local noundef ptr @_ZNK4node17BaseObjectPtrImplINS_5http212Http2SessionELb0EE3getEv(ptr noundef nonnull align 8 dereferenceable(8) %this) #4 comdat align 2 {
entry:
  %this.addr = alloca ptr, align 8
  store ptr %this, ptr %this.addr, align 8
  %this1 = load ptr, ptr %this.addr, align 8
  %call = call noundef ptr @_ZNK4node17BaseObjectPtrImplINS_5http212Http2SessionELb0EE15get_base_objectEv(ptr noundef nonnull align 8 dereferenceable(8) %this1)
  ret ptr %call
}

; Function Attrs: mustprogress nounwind uwtable
define linkonce_odr dso_local void @_ZN4node17BaseObjectPtrImplINS_5http212Http2SessionELb0EED2Ev(ptr noundef nonnull align 8 dereferenceable(8) %this) unnamed_addr #4 comdat align 2 {
entry:
  %this.addr = alloca ptr, align 8
  store ptr %this, ptr %this.addr, align 8
  %this1 = load ptr, ptr %this.addr, align 8
  %call = call noundef ptr @_ZNK4node17BaseObjectPtrImplINS_5http212Http2SessionELb0EE3getEv(ptr noundef nonnull align 8 dereferenceable(8) %this1)
  %cmp = icmp ne ptr %call, null
  br i1 %cmp, label %if.then, label %if.end

if.then:                                          ; preds = %entry
  %call2 = call noundef ptr @_ZNK4node17BaseObjectPtrImplINS_5http212Http2SessionELb0EE3getEv(ptr noundef nonnull align 8 dereferenceable(8) %this1)
  call void @_ZN4node10BaseObject17decrease_refcountEv(ptr noundef nonnull align 8 dereferenceable(32) %call2)
  br label %if.end

if.end:                                           ; preds = %if.then, %entry
  ret void
}

; Function Attrs: mustprogress nounwind uwtable
define linkonce_odr dso_local noundef zeroext i1 @_ZNK4node5http212Http2Session18is_write_scheduledEv(ptr noundef nonnull align 8 dereferenceable(640) %this) #4 comdat align 2 {
entry:
  %this.addr = alloca ptr, align 8
  store ptr %this, ptr %this.addr, align 8
  %this1 = load ptr, ptr %this.addr, align 8
  %flags_ = getelementptr inbounds %"class.node::http2::Http2Session", ptr %this1, i32 0, i32 12
  %0 = load i32, ptr %flags_, align 8
  %and = and i32 %0, 2
  %tobool = icmp ne i32 %and, 0
  ret i1 %tobool
}

; Function Attrs: mustprogress nounwind uwtable
define linkonce_odr dso_local void @_ZN4node5http212Http2Session12set_in_scopeEb(ptr noundef nonnull align 8 dereferenceable(640) %this, i1 noundef zeroext %on) #4 comdat align 2 {
entry:
  %this.addr = alloca ptr, align 8
  %on.addr = alloca i8, align 1
  store ptr %this, ptr %this.addr, align 8
  %frombool = zext i1 %on to i8
  store i8 %frombool, ptr %on.addr, align 1
  %this1 = load ptr, ptr %this.addr, align 8
  %0 = load i8, ptr %on.addr, align 1
  %tobool = trunc i8 %0 to i1
  br i1 %tobool, label %if.then, label %if.else

if.then:                                          ; preds = %entry
  %flags_ = getelementptr inbounds %"class.node::http2::Http2Session", ptr %this1, i32 0, i32 12
  %1 = load i32, ptr %flags_, align 8
  %or = or i32 %1, 1
  store i32 %or, ptr %flags_, align 8
  br label %if.end

if.else:                                          ; preds = %entry
  %flags_2 = getelementptr inbounds %"class.node::http2::Http2Session", ptr %this1, i32 0, i32 12
  %2 = load i32, ptr %flags_2, align 8
  %and = and i32 %2, -2
  store i32 %and, ptr %flags_2, align 8
  br label %if.end

if.end:                                           ; preds = %if.else, %if.then
  ret void
}

; Function Attrs: mustprogress nounwind uwtable
define linkonce_odr dso_local noundef ptr @_ZNK4node17BaseObjectPtrImplINS_5http212Http2SessionELb0EEptEv(ptr noundef nonnull align 8 dereferenceable(8) %this) #4 comdat align 2 {
entry:
  %this.addr = alloca ptr, align 8
  store ptr %this, ptr %this.addr, align 8
  %this1 = load ptr, ptr %this.addr, align 8
  %call = call noundef ptr @_ZNK4node17BaseObjectPtrImplINS_5http212Http2SessionELb0EE3getEv(ptr noundef nonnull align 8 dereferenceable(8) %this1)
  ret ptr %call
}

; Function Attrs: mustprogress nounwind uwtable
define linkonce_odr dso_local noundef zeroext i1 @_ZNK4node17BaseObjectPtrImplINS_5http212Http2SessionELb0EEcvbEv(ptr noundef nonnull align 8 dereferenceable(8) %this) #4 comdat align 2 {
entry:
  %this.addr = alloca ptr, align 8
  store ptr %this, ptr %this.addr, align 8
  %this1 = load ptr, ptr %this.addr, align 8
  %call = call noundef ptr @_ZNK4node17BaseObjectPtrImplINS_5http212Http2SessionELb0EE3getEv(ptr noundef nonnull align 8 dereferenceable(8) %this1)
  %cmp = icmp ne ptr %call, null
  ret i1 %cmp
}

; Function Attrs: mustprogress nounwind uwtable
define dso_local void @_ZN4node5http210Http2ScopeD2Ev(ptr noundef nonnull align 8 dereferenceable(8) %this) unnamed_addr #4 align 2 {
entry:
  %this.addr = alloca ptr, align 8
  %cleanup.dest.slot = alloca i32, align 4
  store ptr %this, ptr %this.addr, align 8
  %this1 = load ptr, ptr %this.addr, align 8
  %session_ = getelementptr inbounds %"class.node::http2::Http2Scope", ptr %this1, i32 0, i32 0
  %call = call noundef zeroext i1 @_ZNK4node17BaseObjectPtrImplINS_5http212Http2SessionELb0EEcvbEv(ptr noundef nonnull align 8 dereferenceable(8) %session_)
  br i1 %call, label %if.end, label %if.then

if.then:                                          ; preds = %entry
  store i32 1, ptr %cleanup.dest.slot, align 4
  br label %cleanup

if.end:                                           ; preds = %entry
  %session_2 = getelementptr inbounds %"class.node::http2::Http2Scope", ptr %this1, i32 0, i32 0
  %call3 = call noundef ptr @_ZNK4node17BaseObjectPtrImplINS_5http212Http2SessionELb0EEptEv(ptr noundef nonnull align 8 dereferenceable(8) %session_2)
  call void @_ZN4node5http212Http2Session12set_in_scopeEb(ptr noundef nonnull align 8 dereferenceable(640) %call3, i1 noundef zeroext false)
  %session_4 = getelementptr inbounds %"class.node::http2::Http2Scope", ptr %this1, i32 0, i32 0
  %call5 = call noundef ptr @_ZNK4node17BaseObjectPtrImplINS_5http212Http2SessionELb0EEptEv(ptr noundef nonnull align 8 dereferenceable(8) %session_4)
  %call6 = call noundef zeroext i1 @_ZNK4node5http212Http2Session18is_write_scheduledEv(ptr noundef nonnull align 8 dereferenceable(640) %call5)
  br i1 %call6, label %if.end10, label %if.then7

if.then7:                                         ; preds = %if.end
  %session_8 = getelementptr inbounds %"class.node::http2::Http2Scope", ptr %this1, i32 0, i32 0
  %call9 = call noundef ptr @_ZNK4node17BaseObjectPtrImplINS_5http212Http2SessionELb0EEptEv(ptr noundef nonnull align 8 dereferenceable(8) %session_8)
  call void @_ZN4node5http212Http2Session18MaybeScheduleWriteEv(ptr noundef nonnull align 8 dereferenceable(640) %call9)
  br label %if.end10

if.end10:                                         ; preds = %if.then7, %if.end
  store i32 0, ptr %cleanup.dest.slot, align 4
  br label %cleanup

cleanup:                                          ; preds = %if.end10, %if.then
  %session_11 = getelementptr inbounds %"class.node::http2::Http2Scope", ptr %this1, i32 0, i32 0
  call void @_ZN4node17BaseObjectPtrImplINS_5http212Http2SessionELb0EED2Ev(ptr noundef nonnull align 8 dereferenceable(8) %session_11) #3
  %cleanup.dest = load i32, ptr %cleanup.dest.slot, align 4
  switch i32 %cleanup.dest, label %unreachable [
    i32 0, label %cleanup.cont
    i32 1, label %cleanup.cont
  ]

cleanup.cont:                                     ; preds = %cleanup, %cleanup
  ret void

unreachable:                                      ; preds = %cleanup
  unreachable
}