; Function Attrs: mustprogress nounwind uwtable
define dso_local void @_ZN4node5http210Http2ScopeD2Ev(ptr nocapture noundef nonnull readonly align 8 dereferenceable(8) %this) unnamed_addr #4 align 2 {
entry:
  %0 = load ptr, ptr %this, align 8
  %cmp.i.not = icmp eq ptr %0, null
  br i1 %cmp.i.not, label %_ZN4node17BaseObjectPtrImplINS_5http212Http2SessionELb0EED2Ev.exit, label %if.end

if.end:                                           ; preds = %entry
  %flags_.i = getelementptr inbounds i8, ptr %0, i64 304
  %1 = load i32, ptr %flags_.i, align 8
  %and.i = and i32 %1, -2
  store i32 %and.i, ptr %flags_.i, align 8
  %2 = load ptr, ptr %this, align 8
  %flags_.i1 = getelementptr inbounds i8, ptr %2, i64 304
  %3 = load i32, ptr %flags_.i1, align 8
  %and.i2 = and i32 %3, 2
  %tobool.i.not = icmp eq i32 %and.i2, 0
  br i1 %tobool.i.not, label %cleanup, label %if.then.i

cleanup:                                          ; preds = %if.end
  tail call void @_ZN4node5http212Http2Session18MaybeScheduleWriteEv(ptr noundef nonnull align 8 dereferenceable(640) %2)
  %.pr = load ptr, ptr %this, align 8
  %cmp.not.i = icmp eq ptr %.pr, null
  br i1 %cmp.not.i, label %_ZN4node17BaseObjectPtrImplINS_5http212Http2SessionELb0EED2Ev.exit, label %if.then.i

if.then.i:                                        ; preds = %if.end, %cleanup
  %4 = phi ptr [ %.pr, %cleanup ], [ %2, %if.end ]
  tail call void @_ZN4node10BaseObject17decrease_refcountEv(ptr noundef nonnull align 8 dereferenceable(32) %4) #29
  br label %_ZN4node17BaseObjectPtrImplINS_5http212Http2SessionELb0EED2Ev.exit

_ZN4node17BaseObjectPtrImplINS_5http212Http2SessionELb0EED2Ev.exit: ; preds = %entry, %cleanup, %if.then.i
  ret void
}